; Function Attrs: mustprogress nofree nounwind willreturn memory(write, argmem: none, inaccessiblemem: readwrite) uwtable
define noalias noundef ptr @Cec_ManPatStart() local_unnamed_addr #9 {
  %1 = tail call noalias dereferenceable_or_null(120) ptr @calloc(i64 noundef 1, i64 noundef 120) #16
  %2 = tail call noalias dereferenceable_or_null(16) ptr @malloc(i64 noundef 16) #17
  %3 = getelementptr inbounds nuw i8, ptr %2, i64 4
  store i32 0, ptr %3, align 4, !tbaa !70
  store i32 1048576, ptr %2, align 8, !tbaa !72
  %4 = tail call noalias dereferenceable_or_null(1048576) ptr @malloc(i64 noundef 1048576) #17
  %5 = getelementptr inbounds nuw i8, ptr %2, i64 8
  store ptr %4, ptr %5, align 8, !tbaa !73
  %6 = getelementptr inbounds nuw i8, ptr %1, i64 16
  store ptr %2, ptr %6, align 8, !tbaa !74
  %7 = tail call noalias dereferenceable_or_null(16) ptr @malloc(i64 noundef 16) #17
  %8 = getelementptr inbounds nuw i8, ptr %7, i64 4
  store i32 0, ptr %8, align 4, !tbaa !41
  store i32 1000, ptr %7, align 8, !tbaa !42
  %9 = tail call noalias dereferenceable_or_null(4000) ptr @malloc(i64 noundef 4000) #17
  %10 = getelementptr inbounds nuw i8, ptr %7, i64 8
  store ptr %9, ptr %10, align 8, !tbaa !43
  store ptr %7, ptr %1, align 8, !tbaa !76
  %11 = tail call noalias dereferenceable_or_null(16) ptr @malloc(i64 noundef 16) #17
  %12 = getelementptr inbounds nuw i8, ptr %11, i64 4
  store i32 0, ptr %12, align 4, !tbaa !41
  store i32 1000, ptr %11, align 8, !tbaa !42
  %13 = tail call noalias dereferenceable_or_null(4000) ptr @malloc(i64 noundef 4000) #17
  %14 = getelementptr inbounds nuw i8, ptr %11, i64 8
  store ptr %13, ptr %14, align 8, !tbaa !43
  %15 = getelementptr inbounds nuw i8, ptr %1, i64 8
  store ptr %11, ptr %15, align 8, !tbaa !77
  ret ptr %1
}